target datalayout = "e-m:e-p270:32:32-p271:32:32-p272:64:64-i64:64-i128:128-f80:128-n8:16:32:64-S128"
target triple = "x86_64-pc-linux-gnu"

@.str.42 = private unnamed_addr constant [22 x i8] c"c values at t = %g:\0A\0A\00", align 1
@.str.43 = private unnamed_addr constant [12 x i8] c"Species %d\0A\00", align 1
@.str.44 = private unnamed_addr constant [8 x i8] c"%-10.6g\00", align 1
@.str.45 = private unnamed_addr constant [2 x i8] c"\0A\00", align 1

; Function Attrs: nounwind uwtable
define internal void @PrintAllSpecies(ptr noundef %0, i32 noundef %1, i32 noundef %2, double noundef %3) #0 {
  %5 = alloca ptr, align 8
  %6 = alloca i32, align 4
  %7 = alloca i32, align 4
  %8 = alloca double, align 8
  %9 = alloca i32, align 4
  %10 = alloca i32, align 4
  %11 = alloca i32, align 4
  %12 = alloca ptr, align 8
  store ptr %0, ptr %5, align 8, !tbaa !13
  store i32 %1, ptr %6, align 4, !tbaa !4
  store i32 %2, ptr %7, align 4, !tbaa !4
  store double %3, ptr %8, align 8, !tbaa !11
  call void @llvm.lifetime.start.p0(i64 4, ptr %9) #7
  call void @llvm.lifetime.start.p0(i64 4, ptr %10) #7
  call void @llvm.lifetime.start.p0(i64 4, ptr %11) #7
  call void @llvm.lifetime.start.p0(i64 8, ptr %12) #7
  %13 = load ptr, ptr %5, align 8, !tbaa !13
  %14 = call ptr @N_VGetArrayPointer(ptr noundef %13)
  store ptr %14, ptr %12, align 8, !tbaa !38
  %15 = load double, ptr %8, align 8, !tbaa !11
  %16 = call i32 (ptr, ...) @printf(ptr noundef @.str.42, double noundef %15)
  store i32 1, ptr %9, align 4, !tbaa !4
  br label %17

17:                                               ; preds = %57, %4
  %18 = load i32, ptr %9, align 4, !tbaa !4
  %19 = load i32, ptr %6, align 4, !tbaa !4
  %20 = icmp sle i32 %18, %19
  br i1 %20, label %21, label %60

21:                                               ; preds = %17
  %22 = load i32, ptr %9, align 4, !tbaa !4
  %23 = call i32 (ptr, ...) @printf(ptr noundef @.str.43, i32 noundef %22)
  store i32 5, ptr %11, align 4, !tbaa !4
  br label %24

24:                                               ; preds = %52, %21
  %25 = load i32, ptr %11, align 4, !tbaa !4
  %26 = icmp sge i32 %25, 0
  br i1 %26, label %27, label %55

27:                                               ; preds = %24
  store i32 0, ptr %10, align 4, !tbaa !4
  br label %28

28:                                               ; preds = %47, %27
  %29 = load i32, ptr %10, align 4, !tbaa !4
  %30 = icmp slt i32 %29, 6
  br i1 %30, label %31, label %50

31:                                               ; preds = %28
  %32 = load ptr, ptr %12, align 8, !tbaa !38
  %33 = load i32, ptr %9, align 4, !tbaa !4
  %34 = sub nsw i32 %33, 1
  %35 = load i32, ptr %10, align 4, !tbaa !4
  %36 = load i32, ptr %6, align 4, !tbaa !4
  %37 = mul nsw i32 %35, %36
  %38 = add nsw i32 %34, %37
  %39 = load i32, ptr %11, align 4, !tbaa !4
  %40 = load i32, ptr %7, align 4, !tbaa !4
  %41 = mul nsw i32 %39, %40
  %42 = add nsw i32 %38, %41
  %43 = sext i32 %42 to i64
  %44 = getelementptr inbounds double, ptr %32, i64 %43
  %45 = load double, ptr %44, align 8, !tbaa !11
  %46 = call i32 (ptr, ...) @printf(ptr noundef @.str.44, double noundef %45)
  br label %47

47:                                               ; preds = %31
  %48 = load i32, ptr %10, align 4, !tbaa !4
  %49 = add nsw i32 %48, 1
  store i32 %49, ptr %10, align 4, !tbaa !4
  br label %28

50:                                               ; preds = %28
  %51 = call i32 (ptr, ...) @printf(ptr noundef @.str.45)
  br label %52

52:                                               ; preds = %50
  %53 = load i32, ptr %11, align 4, !tbaa !4
  %54 = add nsw i32 %53, -1
  store i32 %54, ptr %11, align 4, !tbaa !4
  br label %24

55:                                               ; preds = %24
  %56 = call i32 (ptr, ...) @printf(ptr noundef @.str.45)
  br label %57

57:                                               ; preds = %55
  %58 = load i32, ptr %9, align 4, !tbaa !4
  %59 = add nsw i32 %58, 1
  store i32 %59, ptr %9, align 4, !tbaa !4
  br label %17

60:                                               ; preds = %17
  call void @llvm.lifetime.end.p0(i64 8, ptr %12) #7
  call void @llvm.lifetime.end.p0(i64 4, ptr %11) #7
  call void @llvm.lifetime.end.p0(i64 4, ptr %10) #7
  call void @llvm.lifetime.end.p0(i64 4, ptr %9) #7
  ret void
}