; Function Attrs: nounwind uwtable
define internal fastcc void @PrintAllSpecies(ptr noundef %0, i32 noundef %1, i32 noundef %2, double noundef %3) unnamed_addr #0 {
  %5 = tail call ptr @N_VGetArrayPointer(ptr noundef %0) #10
  %6 = tail call i32 (ptr, ...) @printf(ptr noundef nonnull dereferenceable(1) @.str.42, double noundef %3)
  %.not21 = icmp slt i32 %1, 1
  br i1 %.not21, label %._crit_edge, label %.lr.ph

.lr.ph:                                           ; preds = %4, %21
  %.022 = phi i32 [ %22, %21 ], [ 1, %4 ]
  %7 = tail call i32 (ptr, ...) @printf(ptr noundef nonnull dereferenceable(1) @.str.43, i32 noundef %.022)
  %8 = add nsw i32 %.022, -1
  br label %.preheader

.preheader:                                       ; preds = %.lr.ph, %19
  %.01520 = phi i32 [ 5, %.lr.ph ], [ %20, %19 ]
  %9 = mul nsw i32 %.01520, %2
  %10 = add i32 %8, %9
  br label %11

11:                                               ; preds = %.preheader, %11
  %indvars.iv = phi i64 [ 0, %.preheader ], [ %indvars.iv.next, %11 ]
  %12 = trunc i64 %indvars.iv to i32
  %13 = mul i32 %1, %12
  %14 = add i32 %10, %13
  %15 = sext i32 %14 to i64
  %16 = getelementptr inbounds double, ptr %5, i64 %15
  %17 = load double, ptr %16, align 8, !tbaa !25
  %18 = tail call i32 (ptr, ...) @printf(ptr noundef nonnull dereferenceable(1) @.str.44, double noundef %17)
  %indvars.iv.next = add nuw nsw i64 %indvars.iv, 1
  %exitcond.not = icmp eq i64 %indvars.iv.next, 6
  br i1 %exitcond.not, label %19, label %11

19:                                               ; preds = %11
  %putchar18 = tail call i32 @putchar(i32 10)
  %20 = add nsw i32 %.01520, -1
  %.not = icmp eq i32 %.01520, 0
  br i1 %.not, label %21, label %.preheader

21:                                               ; preds = %19
  %putchar = tail call i32 @putchar(i32 10)
  %22 = add nuw i32 %.022, 1
  %exitcond24.not = icmp eq i32 %.022, %1
  br i1 %exitcond24.not, label %._crit_edge, label %.lr.ph

._crit_edge:                                      ; preds = %21, %4
  ret void
}